target datalayout = "e-m:e-p270:32:32-p271:32:32-p272:64:64-i64:64-i128:128-f80:128-n8:16:32:64-S128"
target triple = "x86_64-unknown-linux-gnu"

%"class.cvc5::internal::NodeTemplate" = type { ptr }
%"class.std::__cxx11::basic_string" = type { %"struct.std::__cxx11::basic_string<char>::_Alloc_hider", i64, %union.anon }
%"struct.std::__cxx11::basic_string<char>::_Alloc_hider" = type { ptr }
%union.anon = type { i64, [8 x i8] }
%"class.cvc5::internal::theory::TheoryModel" = type { %"class.cvc5::internal::EnvObj", %"class.std::__cxx11::basic_string", ptr, %"class.std::unordered_set", %"class.std::unordered_set", %"class.std::set", %"class.std::map", %"class.std::map.15", %"class.std::map", %"class.std::map.15", %"class.cvc5::internal::theory::RepSet", %"class.cvc5::internal::NodeTemplate", %"class.cvc5::internal::NodeTemplate", i8, %"class.std::unordered_set.38", %"class.std::unordered_map", %"class.cvc5::internal::NodeTemplate", %"class.cvc5::internal::NodeTemplate", %"class.std::map.15", %"class.std::map.15", i8, %"class.std::map" }
%"class.cvc5::internal::EnvObj" = type { ptr, ptr }
%"class.std::unordered_set" = type { %"class.std::_Hashtable" }
%"class.std::_Hashtable" = type { ptr, i64, %"struct.std::__detail::_Hash_node_base", i64, %"struct.std::__detail::_Prime_rehash_policy", ptr }
%"struct.std::__detail::_Hash_node_base" = type { ptr }
%"struct.std::__detail::_Prime_rehash_policy" = type { float, i64 }
%"class.std::set" = type { %"class.std::_Rb_tree" }
%"class.std::_Rb_tree" = type { %"struct.std::_Rb_tree<cvc5::internal::kind::Kind_t, cvc5::internal::kind::Kind_t, std::_Identity<cvc5::internal::kind::Kind_t>, std::less<cvc5::internal::kind::Kind_t>>::_Rb_tree_impl" }
%"struct.std::_Rb_tree<cvc5::internal::kind::Kind_t, cvc5::internal::kind::Kind_t, std::_Identity<cvc5::internal::kind::Kind_t>, std::less<cvc5::internal::kind::Kind_t>>::_Rb_tree_impl" = type { %"struct.std::_Rb_tree_key_compare", %"struct.std::_Rb_tree_header" }
%"struct.std::_Rb_tree_key_compare" = type { %"struct.std::less" }
%"struct.std::less" = type { i8 }
%"struct.std::_Rb_tree_header" = type { %"struct.std::_Rb_tree_node_base", i64 }
%"struct.std::_Rb_tree_node_base" = type { i32, ptr, ptr, ptr }
%"class.cvc5::internal::theory::RepSet" = type { %"class.std::map.20", %"class.std::map.28", %"class.std::map.33", %"class.std::map" }
%"class.std::map.20" = type { %"class.std::_Rb_tree.21" }
%"class.std::_Rb_tree.21" = type { %"struct.std::_Rb_tree<cvc5::internal::TypeNode, std::pair<const cvc5::internal::TypeNode, std::vector<cvc5::internal::NodeTemplate<true>>>, std::_Select1st<std::pair<const cvc5::internal::TypeNode, std::vector<cvc5::internal::NodeTemplate<true>>>>, std::less<cvc5::internal::TypeNode>>::_Rb_tree_impl" }
%"struct.std::_Rb_tree<cvc5::internal::TypeNode, std::pair<const cvc5::internal::TypeNode, std::vector<cvc5::internal::NodeTemplate<true>>>, std::_Select1st<std::pair<const cvc5::internal::TypeNode, std::vector<cvc5::internal::NodeTemplate<true>>>>, std::less<cvc5::internal::TypeNode>>::_Rb_tree_impl" = type { %"struct.std::_Rb_tree_key_compare.25", %"struct.std::_Rb_tree_header" }
%"struct.std::_Rb_tree_key_compare.25" = type { %"struct.std::less.26" }
%"struct.std::less.26" = type { i8 }
%"class.std::map.28" = type { %"class.std::_Rb_tree.29" }
%"class.std::_Rb_tree.29" = type { %"struct.std::_Rb_tree<cvc5::internal::TypeNode, std::pair<const cvc5::internal::TypeNode, bool>, std::_Select1st<std::pair<const cvc5::internal::TypeNode, bool>>, std::less<cvc5::internal::TypeNode>>::_Rb_tree_impl" }
%"struct.std::_Rb_tree<cvc5::internal::TypeNode, std::pair<const cvc5::internal::TypeNode, bool>, std::_Select1st<std::pair<const cvc5::internal::TypeNode, bool>>, std::less<cvc5::internal::TypeNode>>::_Rb_tree_impl" = type { %"struct.std::_Rb_tree_key_compare.25", %"struct.std::_Rb_tree_header" }
%"class.std::map.33" = type { %"class.std::_Rb_tree.34" }
%"class.std::_Rb_tree.34" = type { %"struct.std::_Rb_tree<cvc5::internal::NodeTemplate<true>, std::pair<const cvc5::internal::NodeTemplate<true>, int>, std::_Select1st<std::pair<const cvc5::internal::NodeTemplate<true>, int>>, std::less<cvc5::internal::NodeTemplate<true>>>::_Rb_tree_impl" }
%"struct.std::_Rb_tree<cvc5::internal::NodeTemplate<true>, std::pair<const cvc5::internal::NodeTemplate<true>, int>, std::_Select1st<std::pair<const cvc5::internal::NodeTemplate<true>, int>>, std::less<cvc5::internal::NodeTemplate<true>>>::_Rb_tree_impl" = type { %"struct.std::_Rb_tree_key_compare.12", %"struct.std::_Rb_tree_header" }
%"struct.std::_Rb_tree_key_compare.12" = type { %"struct.std::less.13" }
%"struct.std::less.13" = type { i8 }
%"class.std::unordered_set.38" = type { %"class.std::_Hashtable.39" }
%"class.std::_Hashtable.39" = type { ptr, i64, %"struct.std::__detail::_Hash_node_base", i64, %"struct.std::__detail::_Prime_rehash_policy", ptr }
%"class.std::unordered_map" = type { %"class.std::_Hashtable.55" }
%"class.std::_Hashtable.55" = type { ptr, i64, %"struct.std::__detail::_Hash_node_base", i64, %"struct.std::__detail::_Prime_rehash_policy", ptr }
%"class.std::map.15" = type { %"class.std::_Rb_tree.16" }
%"class.std::_Rb_tree.16" = type { %"struct.std::_Rb_tree<cvc5::internal::NodeTemplate<true>, std::pair<const cvc5::internal::NodeTemplate<true>, std::vector<cvc5::internal::NodeTemplate<true>>>, std::_Select1st<std::pair<const cvc5::internal::NodeTemplate<true>, std::vector<cvc5::internal::NodeTemplate<true>>>>, std::less<cvc5::internal::NodeTemplate<true>>>::_Rb_tree_impl" }
%"struct.std::_Rb_tree<cvc5::internal::NodeTemplate<true>, std::pair<const cvc5::internal::NodeTemplate<true>, std::vector<cvc5::internal::NodeTemplate<true>>>, std::_Select1st<std::pair<const cvc5::internal::NodeTemplate<true>, std::vector<cvc5::internal::NodeTemplate<true>>>>, std::less<cvc5::internal::NodeTemplate<true>>>::_Rb_tree_impl" = type { %"struct.std::_Rb_tree_key_compare.12", %"struct.std::_Rb_tree_header" }
%"class.std::map" = type { %"class.std::_Rb_tree.8" }
%"class.std::_Rb_tree.8" = type { %"struct.std::_Rb_tree<cvc5::internal::NodeTemplate<true>, std::pair<const cvc5::internal::NodeTemplate<true>, cvc5::internal::NodeTemplate<true>>, std::_Select1st<std::pair<const cvc5::internal::NodeTemplate<true>, cvc5::internal::NodeTemplate<true>>>, std::less<cvc5::internal::NodeTemplate<true>>>::_Rb_tree_impl" }
%"struct.std::_Rb_tree<cvc5::internal::NodeTemplate<true>, std::pair<const cvc5::internal::NodeTemplate<true>, cvc5::internal::NodeTemplate<true>>, std::_Select1st<std::pair<const cvc5::internal::NodeTemplate<true>, cvc5::internal::NodeTemplate<true>>>, std::less<cvc5::internal::NodeTemplate<true>>>::_Rb_tree_impl" = type { %"struct.std::_Rb_tree_key_compare.12", %"struct.std::_Rb_tree_header" }
%"class.cvc5::internal::NodeTemplate.539" = type { ptr }

; Function Attrs: mustprogress nounwind uwtable
define linkonce_odr hidden void @_ZN4cvc58internal12NodeTemplateILb0EED2Ev(ptr noundef nonnull align 8 dereferenceable(8) %this) unnamed_addr #5 comdat align 2 {
entry:
  %this.addr = alloca ptr, align 8
  store ptr %this, ptr %this.addr, align 8
  ret void
}

; Function Attrs: mustprogress nounwind uwtable
define linkonce_odr hidden void @_ZN4cvc58internal12NodeTemplateILb0EEC2ERKS2_(ptr noundef nonnull align 8 dereferenceable(8) %this, ptr noundef nonnull align 8 dereferenceable(8) %e) unnamed_addr #5 comdat align 2 {
entry:
  %this.addr = alloca ptr, align 8
  %e.addr = alloca ptr, align 8
  store ptr %this, ptr %this.addr, align 8
  store ptr %e, ptr %e.addr, align 8
  %this1 = load ptr, ptr %this.addr, align 8
  %0 = load ptr, ptr %e.addr, align 8
  %d_nv = getelementptr inbounds %"class.cvc5::internal::NodeTemplate.539", ptr %0, i32 0, i32 0
  %1 = load ptr, ptr %d_nv, align 8
  %d_nv2 = getelementptr inbounds %"class.cvc5::internal::NodeTemplate.539", ptr %this1, i32 0, i32 0
  store ptr %1, ptr %d_nv2, align 8
  ret void
}

; Function Attrs: mustprogress uwtable
define hidden noundef zeroext i1 @_ZN4cvc58internal6theory11TheoryModel11areDisequalENS0_12NodeTemplateILb0EEES4_(ptr noundef nonnull align 8 dereferenceable(904) %this, ptr noundef %a, ptr noundef %b) #4 align 2 personality ptr @__gxx_personality_v0 {
entry:
  %retval = alloca i1, align 1
  %this.addr = alloca ptr, align 8
  %a.indirect_addr = alloca ptr, align 8
  %b.indirect_addr = alloca ptr, align 8
  %agg.tmp = alloca %"class.cvc5::internal::NodeTemplate.539", align 8
  %exn.slot = alloca ptr, align 8
  %ehselector.slot = alloca i32, align 4
  %agg.tmp3 = alloca %"class.cvc5::internal::NodeTemplate.539", align 8
  %cleanup.cond = alloca i1, align 1
  %agg.tmp12 = alloca %"class.cvc5::internal::NodeTemplate.539", align 8
  %agg.tmp13 = alloca %"class.cvc5::internal::NodeTemplate.539", align 8
  store ptr %this, ptr %this.addr, align 8
  store ptr %a, ptr %a.indirect_addr, align 8
  store ptr %b, ptr %b.indirect_addr, align 8
  %this1 = load ptr, ptr %this.addr, align 8
  %d_equalityEngine = getelementptr inbounds %"class.cvc5::internal::theory::TheoryModel", ptr %this1, i32 0, i32 2
  %0 = load ptr, ptr %d_equalityEngine, align 8
  call void @_ZN4cvc58internal12NodeTemplateILb0EEC2ERKS2_(ptr noundef nonnull align 8 dereferenceable(8) %agg.tmp, ptr noundef nonnull align 8 dereferenceable(8) %a)
  store i1 false, ptr %cleanup.cond, align 1
  %call = invoke noundef zeroext i1 @_ZNK4cvc58internal6theory2eq14EqualityEngine7hasTermENS0_12NodeTemplateILb0EEE(ptr noundef nonnull align 8 dereferenceable(1784) %0, ptr noundef %agg.tmp)
          to label %invoke.cont unwind label %lpad

invoke.cont:                                      ; preds = %entry
  br i1 %call, label %land.rhs, label %land.end

land.rhs:                                         ; preds = %invoke.cont
  %d_equalityEngine2 = getelementptr inbounds %"class.cvc5::internal::theory::TheoryModel", ptr %this1, i32 0, i32 2
  %1 = load ptr, ptr %d_equalityEngine2, align 8
  invoke void @_ZN4cvc58internal12NodeTemplateILb0EEC2ERKS2_(ptr noundef nonnull align 8 dereferenceable(8) %agg.tmp3, ptr noundef nonnull align 8 dereferenceable(8) %b)
          to label %invoke.cont4 unwind label %lpad

invoke.cont4:                                     ; preds = %land.rhs
  store i1 true, ptr %cleanup.cond, align 1
  %call7 = invoke noundef zeroext i1 @_ZNK4cvc58internal6theory2eq14EqualityEngine7hasTermENS0_12NodeTemplateILb0EEE(ptr noundef nonnull align 8 dereferenceable(1784) %1, ptr noundef %agg.tmp3)
          to label %invoke.cont6 unwind label %lpad5

invoke.cont6:                                     ; preds = %invoke.cont4
  br label %land.end

land.end:                                         ; preds = %invoke.cont6, %invoke.cont
  %2 = phi i1 [ false, %invoke.cont ], [ %call7, %invoke.cont6 ]
  %cleanup.is_active = load i1, ptr %cleanup.cond, align 1
  br i1 %cleanup.is_active, label %cleanup.action, label %cleanup.done

cleanup.action:                                   ; preds = %land.end
  call void @_ZN4cvc58internal12NodeTemplateILb0EED2Ev(ptr noundef nonnull align 8 dereferenceable(8) %agg.tmp3) #3
  br label %cleanup.done

cleanup.done:                                     ; preds = %cleanup.action, %land.end
  call void @_ZN4cvc58internal12NodeTemplateILb0EED2Ev(ptr noundef nonnull align 8 dereferenceable(8) %agg.tmp) #3
  br i1 %2, label %if.then, label %if.else

if.then:                                          ; preds = %cleanup.done
  %d_equalityEngine11 = getelementptr inbounds %"class.cvc5::internal::theory::TheoryModel", ptr %this1, i32 0, i32 2
  %3 = load ptr, ptr %d_equalityEngine11, align 8
  call void @_ZN4cvc58internal12NodeTemplateILb0EEC2ERKS2_(ptr noundef nonnull align 8 dereferenceable(8) %agg.tmp12, ptr noundef nonnull align 8 dereferenceable(8) %a)
  invoke void @_ZN4cvc58internal12NodeTemplateILb0EEC2ERKS2_(ptr noundef nonnull align 8 dereferenceable(8) %agg.tmp13, ptr noundef nonnull align 8 dereferenceable(8) %b)
          to label %invoke.cont15 unwind label %lpad14

invoke.cont15:                                    ; preds = %if.then
  %call18 = invoke noundef zeroext i1 @_ZNK4cvc58internal6theory2eq14EqualityEngine11areDisequalENS0_12NodeTemplateILb0EEES5_b(ptr noundef nonnull align 8 dereferenceable(1784) %3, ptr noundef %agg.tmp12, ptr noundef %agg.tmp13, i1 noundef zeroext false)
          to label %invoke.cont17 unwind label %lpad16

invoke.cont17:                                    ; preds = %invoke.cont15
  store i1 %call18, ptr %retval, align 1
  call void @_ZN4cvc58internal12NodeTemplateILb0EED2Ev(ptr noundef nonnull align 8 dereferenceable(8) %agg.tmp13) #3
  call void @_ZN4cvc58internal12NodeTemplateILb0EED2Ev(ptr noundef nonnull align 8 dereferenceable(8) %agg.tmp12) #3
  br label %return

lpad:                                             ; preds = %land.rhs, %entry
  %4 = landingpad { ptr, i32 }
          cleanup
  %5 = extractvalue { ptr, i32 } %4, 0
  store ptr %5, ptr %exn.slot, align 8
  %6 = extractvalue { ptr, i32 } %4, 1
  store i32 %6, ptr %ehselector.slot, align 4
  br label %ehcleanup

lpad5:                                            ; preds = %invoke.cont4
  %7 = landingpad { ptr, i32 }
          cleanup
  %8 = extractvalue { ptr, i32 } %7, 0
  store ptr %8, ptr %exn.slot, align 8
  %9 = extractvalue { ptr, i32 } %7, 1
  store i32 %9, ptr %ehselector.slot, align 4
  %cleanup.is_active8 = load i1, ptr %cleanup.cond, align 1
  br i1 %cleanup.is_active8, label %cleanup.action9, label %cleanup.done10

cleanup.action9:                                  ; preds = %lpad5
  call void @_ZN4cvc58internal12NodeTemplateILb0EED2Ev(ptr noundef nonnull align 8 dereferenceable(8) %agg.tmp3) #3
  br label %cleanup.done10

cleanup.done10:                                   ; preds = %cleanup.action9, %lpad5
  br label %ehcleanup

ehcleanup:                                        ; preds = %cleanup.done10, %lpad
  call void @_ZN4cvc58internal12NodeTemplateILb0EED2Ev(ptr noundef nonnull align 8 dereferenceable(8) %agg.tmp) #3
  br label %eh.resume

lpad14:                                           ; preds = %if.then
  %10 = landingpad { ptr, i32 }
          cleanup
  %11 = extractvalue { ptr, i32 } %10, 0
  store ptr %11, ptr %exn.slot, align 8
  %12 = extractvalue { ptr, i32 } %10, 1
  store i32 %12, ptr %ehselector.slot, align 4
  br label %ehcleanup20

lpad16:                                           ; preds = %invoke.cont15
  %13 = landingpad { ptr, i32 }
          cleanup
  %14 = extractvalue { ptr, i32 } %13, 0
  store ptr %14, ptr %exn.slot, align 8
  %15 = extractvalue { ptr, i32 } %13, 1
  store i32 %15, ptr %ehselector.slot, align 4
  call void @_ZN4cvc58internal12NodeTemplateILb0EED2Ev(ptr noundef nonnull align 8 dereferenceable(8) %agg.tmp13) #3
  br label %ehcleanup20

ehcleanup20:                                      ; preds = %lpad16, %lpad14
  call void @_ZN4cvc58internal12NodeTemplateILb0EED2Ev(ptr noundef nonnull align 8 dereferenceable(8) %agg.tmp12) #3
  br label %eh.resume

if.else:                                          ; preds = %cleanup.done
  store i1 false, ptr %retval, align 1
  br label %return

return:                                           ; preds = %if.else, %invoke.cont17
  %16 = load i1, ptr %retval, align 1
  ret i1 %16

eh.resume:                                        ; preds = %ehcleanup20, %ehcleanup
  %exn = load ptr, ptr %exn.slot, align 8
  %sel = load i32, ptr %ehselector.slot, align 4
  %lpad.val = insertvalue { ptr, i32 } poison, ptr %exn, 0
  %lpad.val21 = insertvalue { ptr, i32 } %lpad.val, i32 %sel, 1
  resume { ptr, i32 } %lpad.val21
}