; Function Attrs: mustprogress uwtable
define hidden noundef zeroext i1 @_ZN4cvc58internal6theory11TheoryModel11areDisequalENS0_12NodeTemplateILb0EEES4_(ptr nocapture noundef nonnull readonly align 8 dereferenceable(904) %this, ptr nocapture noundef readonly %a, ptr nocapture noundef readonly %b) local_unnamed_addr #3 align 2 personality ptr @__gxx_personality_v0 {
entry:
  %agg.tmp = alloca %"class.cvc5::internal::NodeTemplate.539", align 8
  %agg.tmp3 = alloca %"class.cvc5::internal::NodeTemplate.539", align 8
  %agg.tmp12 = alloca %"class.cvc5::internal::NodeTemplate.539", align 8
  %agg.tmp13 = alloca %"class.cvc5::internal::NodeTemplate.539", align 8
  %d_equalityEngine = getelementptr inbounds i8, ptr %this, i64 48
  %0 = load ptr, ptr %d_equalityEngine, align 8
  %1 = load ptr, ptr %a, align 8
  store ptr %1, ptr %agg.tmp, align 8
  %call = call noundef zeroext i1 @_ZNK4cvc58internal6theory2eq14EqualityEngine7hasTermENS0_12NodeTemplateILb0EEE(ptr noundef nonnull align 8 dereferenceable(1784) %0, ptr noundef nonnull %agg.tmp)
  br i1 %call, label %land.rhs, label %return

land.rhs:                                         ; preds = %entry
  %2 = load ptr, ptr %d_equalityEngine, align 8
  %3 = load ptr, ptr %b, align 8
  store ptr %3, ptr %agg.tmp3, align 8
  %call7 = call noundef zeroext i1 @_ZNK4cvc58internal6theory2eq14EqualityEngine7hasTermENS0_12NodeTemplateILb0EEE(ptr noundef nonnull align 8 dereferenceable(1784) %2, ptr noundef nonnull %agg.tmp3)
  br i1 %call7, label %if.then, label %return

if.then:                                          ; preds = %land.rhs
  %4 = load ptr, ptr %d_equalityEngine, align 8
  %5 = load ptr, ptr %a, align 8
  store ptr %5, ptr %agg.tmp12, align 8
  %6 = load ptr, ptr %b, align 8
  store ptr %6, ptr %agg.tmp13, align 8
  %call18 = call noundef zeroext i1 @_ZNK4cvc58internal6theory2eq14EqualityEngine11areDisequalENS0_12NodeTemplateILb0EEES5_b(ptr noundef nonnull align 8 dereferenceable(1784) %4, ptr noundef nonnull %agg.tmp12, ptr noundef nonnull %agg.tmp13, i1 noundef zeroext false)
  br label %return

return:                                           ; preds = %if.then, %entry, %land.rhs
  %retval.0 = phi i1 [ false, %land.rhs ], [ %call18, %if.then ], [ false, %entry ]
  ret i1 %retval.0
}